; Function Attrs: nounwind uwtable
define dso_local range(i32 -1, 1) i32 @pg_foreach_ifaddr(ptr noundef readonly captures(none) %0, ptr noundef %1) local_unnamed_addr #7 {
  %3 = alloca %struct.sockaddr_in6, align 4
  %4 = alloca %struct.sockaddr_storage, align 8
  %5 = alloca ptr, align 8
  call void @llvm.lifetime.start.p0(i64 8, ptr nonnull %5) #9
  %6 = call i32 @getifaddrs(ptr noundef nonnull %5) #9
  %7 = icmp slt i32 %6, 0
  br i1 %7, label %39, label %.preheader

.preheader:                                       ; preds = %2
  %.07 = load ptr, ptr %5, align 8
  %.not8 = icmp eq ptr %.07, null
  br i1 %.not8, label %._crit_edge, label %.lr.ph

.lr.ph:                                           ; preds = %.preheader
  %.sroa.4.0..sroa_idx.i.i = getelementptr inbounds nuw i8, ptr %4, i64 4
  %.sroa.5.0..sroa_idx.i.i = getelementptr inbounds nuw i8, ptr %4, i64 8
  %.8..8..sroa_idx = getelementptr inbounds nuw i8, ptr %3, i64 8
  br label %8

8:                                                ; preds = %.lr.ph, %run_ifaddr_callback.exit
  %.09 = phi ptr [ %.07, %.lr.ph ], [ %.0, %run_ifaddr_callback.exit ]
  %9 = getelementptr inbounds nuw i8, ptr %.09, i64 24
  %10 = load ptr, ptr %9, align 8
  %11 = getelementptr inbounds nuw i8, ptr %.09, i64 32
  %12 = load ptr, ptr %11, align 8
  call void @llvm.lifetime.start.p0(i64 128, ptr nonnull %4) #9
  %.not.i = icmp eq ptr %10, null
  br i1 %.not.i, label %run_ifaddr_callback.exit, label %13

13:                                               ; preds = %8
  %.not22.i = icmp eq ptr %12, null
  %.pre.i = load i16, ptr %10, align 2
  br i1 %.not22.i, label %select.unfold.i, label %14

14:                                               ; preds = %13
  %15 = load i16, ptr %12, align 2
  %.not23.i = icmp eq i16 %15, %.pre.i
  br i1 %.not23.i, label %16, label %select.unfold.i

16:                                               ; preds = %14
  switch i16 %.pre.i, label %pg_sockaddr_cidr_mask.exit.i [
    i16 2, label %17
    i16 10, label %21
  ]

17:                                               ; preds = %16
  %18 = getelementptr inbounds nuw i8, ptr %12, i64 4
  %19 = load i32, ptr %18, align 4
  %20 = icmp eq i32 %19, 0
  br i1 %20, label %select.unfold.thread.i, label %pg_sockaddr_cidr_mask.exit.i

21:                                               ; preds = %16
  %22 = getelementptr inbounds nuw i8, ptr %12, i64 8
  %23 = load i32, ptr %22, align 4
  %24 = icmp eq i32 %23, 0
  br i1 %24, label %25, label %pg_sockaddr_cidr_mask.exit.i

25:                                               ; preds = %21
  %26 = getelementptr inbounds nuw i8, ptr %12, i64 12
  %27 = load i32, ptr %26, align 4
  %28 = icmp eq i32 %27, 0
  br i1 %28, label %29, label %pg_sockaddr_cidr_mask.exit.i

29:                                               ; preds = %25
  %30 = getelementptr inbounds nuw i8, ptr %12, i64 16
  %31 = load i32, ptr %30, align 4
  %32 = icmp eq i32 %31, 0
  br i1 %32, label %33, label %pg_sockaddr_cidr_mask.exit.i

33:                                               ; preds = %29
  %34 = getelementptr inbounds nuw i8, ptr %12, i64 20
  %35 = load i32, ptr %34, align 4
  %.fr.i = freeze i32 %35
  %36 = icmp eq i32 %.fr.i, 0
  br i1 %36, label %select.unfold.thread30.i, label %pg_sockaddr_cidr_mask.exit.i

select.unfold.i:                                  ; preds = %14, %13
  switch i16 %.pre.i, label %pg_sockaddr_cidr_mask.exit.i [
    i16 2, label %select.unfold.thread.i
    i16 10, label %select.unfold.thread30.i
  ]

select.unfold.thread.i:                           ; preds = %select.unfold.i, %17
  store i32 0, ptr %4, align 8
  store i32 -1, ptr %.sroa.4.0..sroa_idx.i.i, align 4
  store i64 0, ptr %.sroa.5.0..sroa_idx.i.i, align 8
  br label %37

select.unfold.thread30.i:                         ; preds = %select.unfold.i, %33
  call void @llvm.lifetime.start.p0(i64 28, ptr nonnull %3)
  call void @llvm.memset.p0.i64(ptr noundef nonnull align 4 dereferenceable(28) %3, i8 0, i64 28, i1 false)
  call void @llvm.memset.p0.i64(ptr noundef nonnull align 4 dereferenceable(16) %.8..8..sroa_idx, i8 -1, i64 16, i1 false)
  call void @llvm.memcpy.p0.p0.i64(ptr noundef nonnull align 8 dereferenceable(28) %4, ptr noundef nonnull align 4 dereferenceable(28) %3, i64 28, i1 false)
  call void @llvm.lifetime.end.p0(i64 28, ptr nonnull %3)
  br label %37

37:                                               ; preds = %select.unfold.thread30.i, %select.unfold.thread.i
  store i16 %.pre.i, ptr %4, align 8
  br label %pg_sockaddr_cidr_mask.exit.i

pg_sockaddr_cidr_mask.exit.i:                     ; preds = %37, %select.unfold.i, %33, %29, %25, %21, %17, %16
  %.1.i = phi ptr [ %12, %17 ], [ %12, %16 ], [ %12, %33 ], [ %4, %select.unfold.i ], [ %4, %37 ], [ %12, %29 ], [ %12, %25 ], [ %12, %21 ]
  call void %0(ptr noundef nonnull %10, ptr noundef nonnull %.1.i, ptr noundef %1) #9
  br label %run_ifaddr_callback.exit

run_ifaddr_callback.exit:                         ; preds = %8, %pg_sockaddr_cidr_mask.exit.i
  call void @llvm.lifetime.end.p0(i64 128, ptr nonnull %4) #9
  %.0 = load ptr, ptr %.09, align 8
  %.not = icmp eq ptr %.0, null
  br i1 %.not, label %._crit_edge.loopexit, label %8, !llvm.loop !7

._crit_edge.loopexit:                             ; preds = %run_ifaddr_callback.exit
  %.pre = load ptr, ptr %5, align 8
  br label %._crit_edge

._crit_edge:                                      ; preds = %._crit_edge.loopexit, %.preheader
  %38 = phi ptr [ %.pre, %._crit_edge.loopexit ], [ null, %.preheader ]
  call void @freeifaddrs(ptr noundef %38) #9
  br label %39

39:                                               ; preds = %2, %._crit_edge
  %.06 = phi i32 [ 0, %._crit_edge ], [ -1, %2 ]
  call void @llvm.lifetime.end.p0(i64 8, ptr nonnull %5) #9
  ret i32 %.06
}